; Function Attrs: mustprogress uwtable
define void @_ZN6icu_7524ICUResourceBundleFactoryC2Ev(ptr noundef nonnull align 8 dereferenceable(144) %this) unnamed_addr #1 align 2 personality ptr @__gxx_personality_v0 {
invoke.cont:
  tail call void @_ZN6icu_7516LocaleKeyFactoryC2Ei(ptr noundef nonnull align 8 dereferenceable(76) %this, i32 noundef 0)
  store ptr getelementptr inbounds ({ [11 x ptr] }, ptr @_ZTVN6icu_7524ICUResourceBundleFactoryE, i64 0, i32 0, i64 2), ptr %this, align 8
  %_bundleName = getelementptr inbounds i8, ptr %this, i64 80
  store ptr getelementptr inbounds ({ [13 x ptr] }, ptr @_ZTVN6icu_7513UnicodeStringE, i64 0, i32 0, i64 2), ptr %_bundleName, align 8
  %fUnion2.i = getelementptr inbounds i8, ptr %this, i64 88
  store i16 2, ptr %fUnion2.i, align 8
  ret void
}